target datalayout = "e-m:e-p270:32:32-p271:32:32-p272:64:64-i64:64-i128:128-f80:128-n8:16:32:64-S128"
target triple = "x86_64-pc-linux-gnu"

%struct._lv_global_t = type { i8, i8, %struct.lv_ll_t, ptr, ptr, %struct.lv_ll_t, i8, i32, i32, ptr, %struct.lv_ll_t, ptr, %struct.lv_ll_t, ptr, ptr, i32, ptr, i8, i32, i32, ptr, i32, %struct.lv_timer_state_t, %struct.lv_anim_state_t, %struct.lv_tick_state_t, %struct._lv_draw_buf_handlers_t, %struct._lv_draw_buf_handlers_t, %struct._lv_draw_buf_handlers_t, %struct.lv_ll_t, ptr, ptr, %struct.lv_draw_global_info_t, [4 x %struct.lv_draw_sw_mask_radius_circle_dsc_t], ptr, ptr, ptr, %struct.lv_tlsf_state_t, %struct.lv_ll_t, ptr, ptr, %struct.lv_style_t, i64, ptr, i32, ptr }
%struct.lv_timer_state_t = type { %struct.lv_ll_t, i8, i8, i8, i8, i32, i8, i32, i32, i32, i32, ptr, ptr }
%struct.lv_anim_state_t = type { i8, i8, ptr, %struct.lv_ll_t }
%struct.lv_tick_state_t = type { i32, i8, ptr, ptr }
%struct._lv_draw_buf_handlers_t = type { ptr, ptr, ptr, ptr, ptr, ptr }
%struct.lv_draw_global_info_t = type { ptr, i32, i32, i32, i32, i8 }
%struct.lv_draw_sw_mask_radius_circle_dsc_t = type { ptr, ptr, ptr, ptr, i32, i32, i32 }
%struct.lv_tlsf_state_t = type { ptr, i64, i64, %struct.lv_ll_t }
%struct.lv_ll_t = type { i32, ptr, ptr }
%struct.lv_style_t = type { ptr, i32, i8 }
%struct._lv_image_cache_data_t = type { %struct._lv_cache_slot_size_t, ptr, i32, ptr, ptr, ptr }
%struct._lv_cache_slot_size_t = type { i64 }

@lv_global = external global %struct._lv_global_t, align 8

; Function Attrs: nounwind uwtable
define void @lv_image_cache_drop(ptr noundef %0) #0 {
  %2 = alloca ptr, align 8
  %3 = alloca %struct._lv_image_cache_data_t, align 8
  store ptr %0, ptr %2, align 8, !tbaa !43
  %4 = load ptr, ptr %2, align 8, !tbaa !43
  call void @lv_image_header_cache_drop(ptr noundef %4)
  %5 = load ptr, ptr %2, align 8, !tbaa !43
  %6 = icmp eq ptr %5, null
  br i1 %6, label %7, label %9

7:                                                ; preds = %1
  %8 = load ptr, ptr getelementptr inbounds nuw (%struct._lv_global_t, ptr @lv_global, i32 0, i32 29), align 8, !tbaa !7
  call void @lv_cache_drop_all(ptr noundef %8, ptr noundef null)
  br label %16

9:                                                ; preds = %1
  call void @llvm.lifetime.start.p0(i64 48, ptr %3) #5
  call void @llvm.memset.p0.i64(ptr align 8 %3, i8 0, i64 48, i1 false)
  %10 = getelementptr inbounds nuw %struct._lv_image_cache_data_t, ptr %3, i32 0, i32 1
  %11 = load ptr, ptr %2, align 8, !tbaa !43
  store ptr %11, ptr %10, align 8, !tbaa !37
  %12 = getelementptr inbounds nuw %struct._lv_image_cache_data_t, ptr %3, i32 0, i32 2
  %13 = load ptr, ptr %2, align 8, !tbaa !43
  %14 = call i32 @lv_image_src_get_type(ptr noundef %13)
  store i32 %14, ptr %12, align 8, !tbaa !42
  %15 = load ptr, ptr getelementptr inbounds nuw (%struct._lv_global_t, ptr @lv_global, i32 0, i32 29), align 8, !tbaa !7
  call void @lv_cache_drop(ptr noundef %15, ptr noundef %3, ptr noundef null)
  call void @llvm.lifetime.end.p0(i64 48, ptr %3) #5
  br label %16

16:                                               ; preds = %9, %7
  ret void
}