; Function Attrs: nounwind uwtable
define void @lv_image_cache_drop(ptr noundef %0) local_unnamed_addr #0 {
  %2 = alloca %struct._lv_image_cache_data_t, align 8
  tail call void @lv_image_header_cache_drop(ptr noundef %0) #4
  %3 = icmp eq ptr %0, null
  br i1 %3, label %4, label %6

4:                                                ; preds = %1
  %5 = load ptr, ptr getelementptr inbounds nuw (i8, ptr @lv_global, i64 520), align 8, !tbaa !3
  tail call void @lv_cache_drop_all(ptr noundef %5, ptr noundef null) #4
  br label %11

6:                                                ; preds = %1
  call void @llvm.lifetime.start.p0(i64 48, ptr nonnull %2) #4
  call void @llvm.memset.p0.i64(ptr noundef nonnull align 8 dereferenceable(48) %2, i8 0, i64 48, i1 false)
  %7 = getelementptr inbounds nuw i8, ptr %2, i64 8
  store ptr %0, ptr %7, align 8, !tbaa !34
  %8 = getelementptr inbounds nuw i8, ptr %2, i64 16
  %9 = tail call i32 @lv_image_src_get_type(ptr noundef nonnull %0) #4
  store i32 %9, ptr %8, align 8, !tbaa !39
  %10 = load ptr, ptr getelementptr inbounds nuw (i8, ptr @lv_global, i64 520), align 8, !tbaa !3
  call void @lv_cache_drop(ptr noundef %10, ptr noundef nonnull %2, ptr noundef null) #4
  call void @llvm.lifetime.end.p0(i64 48, ptr nonnull %2) #4
  br label %11

11:                                               ; preds = %6, %4
  ret void
}